(lp0
(lp1
F-295.59949031146243
aF16.104287335881963
aa(lp2
F-295.59951850771904
aF16.104288213537075
aa(lp3
F-296.331312735565
aF16.110035694786347
aa(lp4
F-297.0749387317337
aF16.105310514220037
aa(lp5
F-297.7986658979207
aF16.101963526802137
aa(lp6
F-298.56343314424157
aF16.098119782283902
aa(lp7
F-299.30846986174583
aF16.098234896431677
aa(lp8
F-300.06307878065854
aF16.093515751650557
aa(lp9
F-300.8101734588854
aF16.08602050889749
aa(lp10
F-301.5240036309697
aF16.08323221327737
aa(lp11
F-302.2851317715831
aF16.08101340592839
aa(lp12
F-302.99498447962105
aF16.075489014270715
aa(lp13
F-303.73564738826826
aF16.067599714151584
aa(lp14
F-304.51336731621996
aF16.064372968510725
aa(lp15
F-305.324267919641
aF16.062894486589357
aa(lp16
F-306.04580508871004
aF16.056056920671836
aa(lp17
F-306.79445195849985
aF16.04745562840253
aa(lp18
F-307.5657936511561
aF16.041594195528887
aa(lp19
F-308.36153057357296
aF16.03436518739909
aa(lp20
F-309.177778292913
aF16.026204082532786
aa(lp21
F-310.0205859672278
aF16.017026551417075
aa(lp22
F-310.7427049423568
aF16.008613565471023
aa(lp23
F-311.4806909742765
aF15.999008205602877
aa(lp24
F-312.23343205358833
aF15.990553707932122
aa(lp25
F-312.99748301366344
aF15.98159255401697
aa(lp26
F-313.77417563972995
aF15.972688066540286
aa(lp27
F-314.56888902792707
aF15.966951725655235
aa(lp28
F-315.38049256335944
aF15.953957178397104
aa(lp29
F-316.2037787535228
aF15.937698119552806
aa(lp30
F-317.0383402951993
aF15.924825856112875
aa(lp31
F-317.88874463923275
aF15.909971609711647
aa(lp32
F-318.75466988189146
aF15.892895426601171
aa(lp33
F-319.6358453873545
aF15.872171732364222
aa(lp34
F-320.3508436381817
aF15.85539446794428
aa(lp35
F-321.075138383545
aF15.83936788723804
aa(lp36
F-321.8069385495037
aF15.823977260966785
aa(lp37
F-322.54784217569977
aF15.809038182604127
aa(lp38
F-323.29752721078694
aF15.792308599455282
aa(lp39
F-324.0543719404377
aF15.777238233597018
aa(lp40
F-324.82049488136545
aF15.760226892190985
aa(lp41
F-325.59504489647225
aF15.74038076994475
aa(lp42
F-326.3768681040965
aF15.722196286311373
aa(lp43
F-327.16845792066306
aF15.705848163343035
aa(lp44
F-327.96954494854435
aF15.689698488684371
aa(lp45
F-328.7807054007426
aF15.673951673088595
aa(lp46
F-329.6004735887982
aF15.659721615258604
aa(lp47
F-330.4254830502905
aF15.644937729579397
aa(lp48
F-331.2566736959852
aF15.627848201664165
aa(lp49
F-332.09586658282205
aF15.609249431756325
aa(lp50
F-332.94348333543167
aF15.59157514362596
aa(lp51
F-333.80156743340194
aF15.575606147293001
aa(lp52
F-334.66838641278446
aF15.560805793851614
aa(lp53
F-335.543433887884
aF15.545046957209706
aa(lp54
F-336.4259899207391
aF15.52863335981965
aa(lp55
F-337.3140491368249
aF15.513163592433557
aa(lp56
F-338.20796154998243
aF15.49648897210136
aa(lp57
F-339.10927564511076
aF15.478386778733693
aa(lp58
F-340.02096148813143
aF15.460543561493978
aa(lp59
F-340.94291211338714
aF15.442251270404086
aa(lp60
F-341.874152852688
aF15.421657575061545
aa(lp61
F-342.81112769665197
aF15.399899136275053
aa(lp62
F-343.75460721272975
aF15.378174836747348
aa(lp63
F-344.4664254258387
aF15.361051419051364
aa(lp64
F-345.18253765115514
aF15.34398934431374
aa(lp65
F-345.9034357825294
aF15.325973055907525
aa(lp66
F-346.6284639216028
aF15.308156896848232
aa(lp67
F-347.3556677675806
aF15.290287546114996
aa(lp68
F-348.0841098674573
aF15.272851472604088
aa(lp69
F-348.81336877215654
aF15.256041173241101
aa(lp70
F-349.54243490146473
aF15.237908758339472
aa(lp71
F-350.27297301311046
aF15.219427752774209
aa(lp72
F-351.0062024188228
aF15.200039533316158
aa(lp73
F-351.74227778380737
aF15.180929551832378
aa(lp74
F-352.4812018247321
aF15.161848339485005
aa(lp75
F-353.222166554071
aF15.14347261551302
aa(lp76
F-353.9642305765301
aF15.125692051253282
aa(lp77
F-354.70598133746535
aF15.108019334031269
aa(lp78
F-355.4484113175422
aF15.091297042090446
aa(lp79
F-356.1909706280567
aF15.074764298391528
aa(lp80
F-356.9344598776661
aF15.057988130254671
aa(lp81
F-357.6812008265406
aF15.041092419531196
aa(lp82
F-358.4304024488665
aF15.023555428371765
aa(lp83
F-359.18215870996937
aF15.00642774719745
aa(lp84
F-359.93547029048204
aF14.990046937367879
aa(lp85
F-360.6893686889671
aF14.972609766758978
aa(lp86
F-361.44462624099106
aF14.954304274520837
aa(lp87
F-362.20071737701073
aF14.936182686593384
aa(lp88
F-362.9588119261898
aF14.91828712343704
aa(lp89
F-363.7194574037567
aF14.900712437694892
aa(lp90
F-364.48340256884694
aF14.883005388197489
aa(lp91
F-365.24925351003185
aF14.865417232969776
aa(lp92
F-366.01609448203817
aF14.84907767479308
aa(lp93
F-366.78364828648046
aF14.833343478268944
aa(lp94
F-367.5524177351035
aF14.817756821517833
aa(lp95
F-368.3227780708112
aF14.802490554866381
aa(lp96
F-369.09574404591694
aF14.786977711133659
aa(lp97
F-369.8713005213067
aF14.771421736222692
aa(lp98
F-370.6501176636666
aF14.755415917839855
aa(lp99
F-371.43228955660015
aF14.739150208770297
aa(lp100
F-372.2174377241172
aF14.723701753187925
aa(lp101
F-373.00461513362825
aF14.70835623156745
aa(lp102
F-373.79295442672446
aF14.693409648956731
aa(lp103
F-374.5822447058745
aF14.678562539396808
aa(lp104
F-375.37388795707375
aF14.663808805169538
aa(lp105
F-376.1680579446256
aF14.649615901755169
aa(lp106
F-376.9651733385399
aF14.635857690358534
aa(lp107
F-377.76443987479433
aF14.622175344615243
aa(lp108
F-378.56582501204684
aF14.606612204341218
aa(lp109
F-379.37096962798387
aF14.58963769976981
aa(lp110
F-380.1792932692915
aF14.572911785566248
aa(lp111
F-380.99017402203754
aF14.556483156280592
aa(lp112
F-381.80228380393237
aF14.539710838813335
aa(lp113
F-382.6161467102356
aF14.5211764248088
aa(lp114
F-383.43253859411925
aF14.50288546003867
aa(lp115
F-384.25245950650424
aF14.484792431932874
aa(lp116
F-385.0757225919515
aF14.465532769914716
aa(lp117
F-385.900694666896
aF14.446477421559393
aa(lp118
F-386.7272865921259
aF14.428770675556734
aa(lp119
F-387.5559066571295
aF14.411373333539814
aa(lp120
F-388.3879041024484
aF14.393177767051384
aa(lp121
F-389.22497995896265
aF14.374766739085317
aa(lp122
F-390.0652902224101
aF14.356740028131753
aa(lp123
F-390.90765761910006
aF14.339538785279728
aa(lp124
F-391.7497047390789
aF14.323090375866741
aa(lp125
F-392.5932971229777
aF14.306556186405942
aa(lp126
F-393.4381584748626
aF14.2893529785797
aa(lp127
F-394.28557175630704
aF14.270580898970366
aa(lp128
F-395.1365398527123
aF14.25106197455898
aa(lp129
F-395.99137041252106
aF14.23277924861759
aa(lp130
F-396.85046628536656
aF14.214189147925936
aa(lp131
F-397.712433419656
aF14.19511691655498
aa(lp132
F-398.5764948814176
aF14.175304606673308
aa(lp133
F-399.44111034832895
aF14.156154354917817
aa(lp134
F-400.30682011228055
aF14.136717511573806
aa(lp135
F-401.1737983934581
aF14.117123538744636
aa(lp136
F-402.0422450504266
aF14.098249332047999
aa(lp137
F-402.9108967878856
aF14.08005800517276
aa(lp138
F-403.7786424299702
aF14.061835472704843
aa(lp139
F-404.644862706773
aF14.043064929079264
aa(lp140
F-405.5098662250675
aF14.023772971238941
aa(lp141
F-406.37361001223326
aF14.003733978490345
aa(lp142
F-407.2364595453255
aF13.982868116698228
aa(lp143
F-408.09798074373975
aF13.96094050083775
aa(lp144
F-408.9584421515465
aF13.937478103907779
aa(lp145
F-409.8178625591099
aF13.913165987469256
aa(lp146
F-410.6771920500323
aF13.890083986334503
aa(lp147
F-411.5367305208929
aF13.867527018184774
aa(lp148
F-412.3954724436626
aF13.84504444047343
aa(lp149
F-413.2525081280619
aF13.821794842137024
aa(lp150
F-414.1083623552695
aF13.7986086581368
aa(lp151
F-414.96337090758607
aF13.774970511556603
aa(lp152
F-415.81752993166447
aF13.750824288465083
aa(lp153
F-416.6708103241399
aF13.726882742485031
aa(lp154
F-417.5229678261094
aF13.702566488878801
aa(lp155
F-418.3742730244994
aF13.678760731127113
aa(lp156
F-419.2249525571242
aF13.655212479527108
aa(lp157
F-420.07550345594063
aF13.632221816922538
aa(lp158
F-420.926073522307
aF13.608619665261358
aa(lp159
F-421.77565212594345
aF13.585098359035328
aa(lp160
F-422.62334488146007
aF13.561435637297109
aa(lp161
F-423.4700270332396
aF13.537570091313682
aa(lp162
F-424.3162822457962
aF13.513980617048219
aa(lp163
F-425.1621082937345
aF13.491278280271217
aa(lp164
F-426.0076595740393
aF13.468611082760617
aa(lp165
F-426.85219320701435
aF13.444935624138452
aa(lp166
F-427.6950047304854
aF13.421363383997232
aa(lp167
F-428.5360821643844
aF13.397971876896918
aa(lp168
F-429.37575228791684
aF13.374088228330947
aa(lp169
F-430.21452635200694
aF13.349132304661907
aa(lp170
F-431.05293833790347
aF13.323491082992405
aa(lp171
F-431.89206365542486
aF13.298946289694868
aa(lp172
F-432.7317532952875
aF13.275166682898998
aa(lp173
F-433.5710527570918
aF13.250704298261553
aa(lp174
F-434.4080261257477
aF13.227037155418657
aa(lp175
F-435.24296095827594
aF13.204554109834135
aa(lp176
F-436.0761552583426
aF13.180459313327447
aa(lp177
F-436.9096257588826
aF13.156155886361375
aa(lp178
F-437.7459675623104
aF13.13294276734814
aa(lp179
F-438.5820303168148
aF13.109030781546608
aa(lp180
F-439.4163056635298
aF13.085791214602068
aa(lp181
F-440.2465123622678
aF13.064837850630283
aa(lp182
F-441.075725463219
aF13.04360051266849
aa(lp183
F-441.90505974413827
aF13.020246298750862
aa(lp184
F-442.73470581602305
aF12.995336382184178
aa(lp185
F-443.56366094667464
aF12.971207246067934
aa(lp186
F-444.3917130394839
aF12.9491322778631
aa(lp187
F-445.21988496929407
aF12.926044910796918
aa(lp188
F-446.0476600266993
aF12.901733429753222
aa(lp189
F-446.87329230690375
aF12.87858628644608
aa(lp190
F-447.6964891268872
aF12.854896213975735
aa(lp191
F-448.5176690011285
aF12.830768257495947
aa(lp192
F-449.33782723825425
aF12.80758666107431
aa(lp193
F-450.1588747855276
aF12.785670915734954
aa(lp194
F-450.9796683914028
aF12.763497003354132
aa(lp195
F-451.80036893766373
aF12.74123855191283
aa(lp196
F-452.62080879462883
aF12.71884391095955
aa(lp197
F-453.4390145158395
aF12.69740399159491
aa(lp198
F-454.2560452139005
aF12.676823013229296
aa(lp199
F-455.0716607654467
aF12.655068333493546
aa(lp200
F-455.8868575892411
aF12.633069418603554
aa(lp201
F-456.7009207108058
aF12.61106887459755
aa(lp202
F-457.5141355865635
aF12.589844694826752
aa(lp203
F-458.3272201847285
aF12.568396574817598
aa(lp204
F-459.14111936930567
aF12.54711376898922
aa(lp205
F-459.9537208955735
aF12.526067504193634
aa(lp206
F-460.7643769555725
aF12.504768189042807
aa(lp207
F-461.5727763460018
aF12.48400258179754
aa(lp208
F-462.3815705496818
aF12.465496992575936
aa(lp209
F-463.19096011668444
aF12.447232960956171
aa(lp210
F-464.00021841563284
aF12.427270610351115
aa(lp211
F-464.8083722079173
aF12.4084126354428
aa(lp212
F-465.6136412653141
aF12.391479085199535
aa(lp213
F-466.41722673131153
aF12.374640991794877
aa(lp214
F-467.22007018327713
aF12.358155502006412
aa(lp215
F-468.02395722223446
aF12.339625819819048
aa(lp216
F-468.8287570415996
aF12.320647350279614
aa(lp217
F-469.6324015390128
aF12.303829326061532
aa(lp218
F-470.43380747316405
aF12.28748259297572
aa(lp219
F-471.2324030138552
aF12.271825193194672
aa(lp220
F-472.028309432324
aF12.258393246098422
aa(lp221
F-472.8216123576276
aF12.244775147060864
aa(lp222
F-473.61321894358844
aF12.231160079245456
aa(lp223
F-474.40465455967933
aF12.21731397905387
aa(lp224
F-475.1935827806592
aF12.202522756997496
aa(lp225
F-475.97956701088697
aF12.18780540395528
aa(lp226
F-476.75991458725184
aF12.170818665879779
aa(lp227
F-477.53827879345044
aF12.155337447999045
aa(lp228
F-478.3135685669258
aF12.141565716592595
aa(lp229
F-479.08643651613966
aF12.129649083944969
aa(lp230
F-479.85625448590145
aF12.11773863970302
aa(lp231
F-480.6235408890061
aF12.10721938777715
aa(lp232
F-481.3857605224475
aF12.096303974976763
aa.